target datalayout = "e-m:e-p270:32:32-p271:32:32-p272:64:64-i64:64-i128:128-f80:128-n8:16:32:64-S128"
target triple = "x86_64-pc-linux-gnu"

@.str = private unnamed_addr constant [10 x i8] c"blob:none\00", align 1
@.str.1 = private unnamed_addr constant [11 x i8] c"blob:limit\00", align 1
@.str.2 = private unnamed_addr constant [5 x i8] c"tree\00", align 1
@.str.3 = private unnamed_addr constant [11 x i8] c"sparse:oid\00", align 1
@.str.4 = private unnamed_addr constant [12 x i8] c"object:type\00", align 1
@.str.5 = private unnamed_addr constant [8 x i8] c"combine\00", align 1
@.str.6 = private unnamed_addr constant [30 x i8] c"list-objects-filter-options.c\00", align 1
@.str.7 = private unnamed_addr constant [54 x i8] c"list_object_filter_config_name: invalid argument '%d'\00", align 1

; Function Attrs: nounwind uwtable
define dso_local ptr @list_object_filter_config_name(i32 noundef %0) #0 {
  %2 = alloca ptr, align 8
  %3 = alloca i32, align 4
  store i32 %0, ptr %3, align 4, !tbaa !4
  %4 = load i32, ptr %3, align 4, !tbaa !4
  switch i32 %4, label %11 [
    i32 0, label %11
    i32 1, label %5
    i32 2, label %6
    i32 3, label %7
    i32 4, label %8
    i32 5, label %9
    i32 6, label %10
    i32 7, label %11
  ]

5:                                                ; preds = %1
  store ptr @.str, ptr %2, align 8
  br label %13

6:                                                ; preds = %1
  store ptr @.str.1, ptr %2, align 8
  br label %13

7:                                                ; preds = %1
  store ptr @.str.2, ptr %2, align 8
  br label %13

8:                                                ; preds = %1
  store ptr @.str.3, ptr %2, align 8
  br label %13

9:                                                ; preds = %1
  store ptr @.str.4, ptr %2, align 8
  br label %13

10:                                               ; preds = %1
  store ptr @.str.5, ptr %2, align 8
  br label %13

11:                                               ; preds = %1, %1, %1
  %12 = load i32, ptr %3, align 4, !tbaa !4
  call void (ptr, i32, ptr, ...) @BUG_fl(ptr noundef @.str.6, i32 noundef 39, ptr noundef @.str.7, i32 noundef %12) #9
  unreachable

13:                                               ; preds = %10, %9, %8, %7, %6, %5
  %14 = load ptr, ptr %2, align 8
  ret ptr %14
}