; Function Attrs: nounwind uwtable
define dso_local noundef nonnull ptr @list_object_filter_config_name(i32 noundef %0) local_unnamed_addr #0 {
  %switch.tableidx = add i32 %0, -1
  %2 = icmp ult i32 %switch.tableidx, 6
  br i1 %2, label %switch.lookup, label %3

3:                                                ; preds = %1
  tail call void (ptr, i32, ptr, ...) @BUG_fl(ptr noundef nonnull @.str.6, i32 noundef 39, ptr noundef nonnull @.str.7, i32 noundef %0) #14
  unreachable

switch.lookup:                                    ; preds = %1
  %4 = zext nneg i32 %switch.tableidx to i64
  %switch.gep = getelementptr inbounds nuw [6 x ptr], ptr @switch.table.list_object_filter_config_name, i64 0, i64 %4
  %switch.load = load ptr, ptr %switch.gep, align 8
  ret ptr %switch.load
}